---
triple:          'arm64-apple-darwin'
binary-path:     '/Users/master/dev/letYuchan.github.io/24Summer_workspace/Algorithm_workspace_withCPP/DataStructure/practice/2.2vector_allocate'
relocations:
  - { offsetInCU: 0x4103, offset: 0x4103, size: 0x8, addend: 0x0, symName: __ZNSt3__124__put_character_sequenceB8ue170006IcNS_11char_traitsIcEEEERNS_13basic_ostreamIT_T0_EES7_PKS4_m, symObjAddr: 0x1A18, symBinAddr: 0x100002F30, symSize: 0x1EC }
  - { offsetInCU: 0x5E79, offset: 0x5E79, size: 0x8, addend: 0x0, symName: __ZNSt3__1lsB8ue170006INS_11char_traitsIcEEEERNS_13basic_ostreamIcT_EES6_PKc, symObjAddr: 0x1B4, symBinAddr: 0x1000016CC, symSize: 0x48 }
  - { offsetInCU: 0x5EBF, offset: 0x5EBF, size: 0x8, addend: 0x0, symName: __ZNSt3__1neB8ue170006IPiEEbRKNS_11__wrap_iterIT_EES6_, symObjAddr: 0x25C, symBinAddr: 0x100001774, symSize: 0x34 }
  - { offsetInCU: 0x5F02, offset: 0x5F02, size: 0x8, addend: 0x0, symName: __ZNSt3__14endlB8ue170006IcNS_11char_traitsIcEEEERNS_13basic_ostreamIT_T0_EES7_, symObjAddr: 0x2F4, symBinAddr: 0x10000180C, symSize: 0x58 }
  - { offsetInCU: 0x5F42, offset: 0x5F42, size: 0x8, addend: 0x0, symName: __ZNSt3__1eqB8ue170006IPiEEbRKNS_11__wrap_iterIT_EES6_, symObjAddr: 0x378, symBinAddr: 0x100001890, symSize: 0x48 }
  - { offsetInCU: 0x5F85, offset: 0x5F85, size: 0x8, addend: 0x0, symName: __ZNSt3__122__make_exception_guardB8ue170006INS_6vectorIi11MyAllocatorIiEE16__destroy_vectorEEENS_28__exception_guard_exceptionsIT_EES7_, symObjAddr: 0x534, symBinAddr: 0x100001A4C, symSize: 0x40 }
  - { offsetInCU: 0x5FBA, offset: 0x5FBA, size: 0x8, addend: 0x0, symName: __ZNSt3__119__allocate_at_leastB8ue170006I11MyAllocatorIiEEENS_19__allocation_resultINS_16allocator_traitsIT_E7pointerEEERS5_m, symObjAddr: 0x8DC, symBinAddr: 0x100001DF4, symSize: 0x40 }
  - { offsetInCU: 0x5FFD, offset: 0x5FFD, size: 0x8, addend: 0x0, symName: __ZNSt3__13minB8ue170006ImEERKT_S3_S3_, symObjAddr: 0xA18, symBinAddr: 0x100001F30, symSize: 0x2C }
  - { offsetInCU: 0x6241, offset: 0x6241, size: 0x8, addend: 0x0, symName: __ZNSt3__13minB8ue170006ImNS_6__lessIvvEEEERKT_S5_S5_T0_, symObjAddr: 0xAB4, symBinAddr: 0x100001FCC, symSize: 0x54 }
  - { offsetInCU: 0x64E2, offset: 0x64E2, size: 0x8, addend: 0x0, symName: __ZNSt3__120__throw_length_errorB8ue170006EPKc, symObjAddr: 0xB98, symBinAddr: 0x1000020B0, symSize: 0x64 }
  - { offsetInCU: 0x650C, offset: 0x650C, size: 0x8, addend: 0x0, symName: __ZNSt3__112__to_addressB8ue170006IiEEPT_S2_, symObjAddr: 0xDD4, symBinAddr: 0x1000022EC, symSize: 0x14 }
  - { offsetInCU: 0x6541, offset: 0x6541, size: 0x8, addend: 0x0, symName: __ZNSt3__130__uninitialized_allocator_copyB8ue170006I11MyAllocatorIiEPKiS4_PiEET2_RT_T0_T1_S6_, symObjAddr: 0xE84, symBinAddr: 0x10000239C, symSize: 0x80 }
  - { offsetInCU: 0x65DE, offset: 0x65DE, size: 0x8, addend: 0x0, symName: __ZNSt3__114__unwrap_rangeB8ue170006IPKiS2_EENS_4pairIT0_S4_EET_S6_, symObjAddr: 0xF74, symBinAddr: 0x10000248C, symSize: 0x60 }
  - { offsetInCU: 0x662A, offset: 0x662A, size: 0x8, addend: 0x0, symName: __ZNSt3__135__uninitialized_allocator_copy_implB8ue170006I11MyAllocatorIiEKiiiLPv0EEEPT2_RT_PT0_SA_S6_, symObjAddr: 0xFD4, symBinAddr: 0x1000024EC, symSize: 0x38 }
  - { offsetInCU: 0x66AB, offset: 0x66AB, size: 0x8, addend: 0x0, symName: __ZNSt3__113__unwrap_iterB8ue170006IPiNS_18__unwrap_iter_implIS1_Lb1EEELi0EEEDTclsrT0_8__unwrapclsr3stdE7declvalIT_EEEES5_, symObjAddr: 0x100C, symBinAddr: 0x100002524, symSize: 0x24 }
  - { offsetInCU: 0x66EF, offset: 0x66EF, size: 0x8, addend: 0x0, symName: __ZNSt3__113__rewrap_iterB8ue170006IPiS1_NS_18__unwrap_iter_implIS1_Lb1EEEEET_S4_T0_, symObjAddr: 0x1030, symBinAddr: 0x100002548, symSize: 0x3C }
  - { offsetInCU: 0x6744, offset: 0x6744, size: 0x8, addend: 0x0, symName: __ZNSt3__19make_pairB8ue170006IPKiS2_EENS_4pairINS_18__unwrap_ref_decayIT_E4typeENS4_IT0_E4typeEEEOS5_OS8_, symObjAddr: 0x106C, symBinAddr: 0x100002584, symSize: 0x38 }
  - { offsetInCU: 0x6793, offset: 0x6793, size: 0x8, addend: 0x0, symName: __ZNSt3__113__unwrap_iterB8ue170006IPKiNS_18__unwrap_iter_implIS2_Lb1EEELi0EEEDTclsrT0_8__unwrapclsr3stdE7declvalIT_EEEES6_, symObjAddr: 0x10A4, symBinAddr: 0x1000025BC, symSize: 0x24 }
  - { offsetInCU: 0x68FE, offset: 0x68FE, size: 0x8, addend: 0x0, symName: __ZNSt3__112__to_addressB8ue170006IKiEEPT_S3_, symObjAddr: 0x115C, symBinAddr: 0x100002674, symSize: 0x14 }
  - { offsetInCU: 0x6933, offset: 0x6933, size: 0x8, addend: 0x0, symName: __ZNSt3__14copyB8ue170006IPKiPiEET0_T_S5_S4_, symObjAddr: 0x1170, symBinAddr: 0x100002688, symSize: 0x40 }
  - { offsetInCU: 0x698D, offset: 0x698D, size: 0x8, addend: 0x0, symName: __ZNSt3__16__copyB8ue170006INS_17_ClassicAlgPolicyEPKiS3_PiEENS_4pairIT0_T2_EES6_T1_S7_, symObjAddr: 0x11B0, symBinAddr: 0x1000026C8, symSize: 0x44 }
  - { offsetInCU: 0x69F9, offset: 0x69F9, size: 0x8, addend: 0x0, symName: __ZNSt3__123__dispatch_copy_or_moveB8ue170006INS_17_ClassicAlgPolicyENS_11__copy_loopIS1_EENS_14__copy_trivialEPKiS6_PiEENS_4pairIT2_T4_EES9_T3_SA_, symObjAddr: 0x11F4, symBinAddr: 0x10000270C, symSize: 0x44 }
  - { offsetInCU: 0x6A77, offset: 0x6A77, size: 0x8, addend: 0x0, symName: __ZNSt3__121__unwrap_and_dispatchB8ue170006INS_10__overloadINS_11__copy_loopINS_17_ClassicAlgPolicyEEENS_14__copy_trivialEEEPKiS8_PiLi0EEENS_4pairIT0_T2_EESB_T1_SC_, symObjAddr: 0x1238, symBinAddr: 0x100002750, symSize: 0xB4 }
  - { offsetInCU: 0x6C4E, offset: 0x6C4E, size: 0x8, addend: 0x0, symName: __ZNSt3__19make_pairB8ue170006IPKiPiEENS_4pairINS_18__unwrap_ref_decayIT_E4typeENS5_IT0_E4typeEEEOS6_OS9_, symObjAddr: 0x1334, symBinAddr: 0x10000284C, symSize: 0x38 }
  - { offsetInCU: 0x6C9D, offset: 0x6C9D, size: 0x8, addend: 0x0, symName: __ZNSt3__114__rewrap_rangeB8ue170006IPKiS2_EET_S3_T0_, symObjAddr: 0x136C, symBinAddr: 0x100002884, symSize: 0x2C }
  - { offsetInCU: 0x6CE9, offset: 0x6CE9, size: 0x8, addend: 0x0, symName: __ZNSt3__119__copy_trivial_implB8ue170006IKiiEENS_4pairIPT_PT0_EES4_S4_S6_, symObjAddr: 0x1398, symBinAddr: 0x1000028B0, symSize: 0x80 }
  - { offsetInCU: 0x6D51, offset: 0x6D51, size: 0x8, addend: 0x0, symName: __ZNSt3__119__constexpr_memmoveB8ue170006IiKiLi0EEEPT_S3_PT0_NS_15__element_countE, symObjAddr: 0x1418, symBinAddr: 0x100002930, symSize: 0x64 }
  - { offsetInCU: 0x6DBF, offset: 0x6DBF, size: 0x8, addend: 0x0, symName: __ZNSt3__19make_pairB8ue170006IRPKiPiEENS_4pairINS_18__unwrap_ref_decayIT_E4typeENS6_IT0_E4typeEEEOS7_OSA_, symObjAddr: 0x147C, symBinAddr: 0x100002994, symSize: 0x38 }
  - { offsetInCU: 0x6E0E, offset: 0x6E0E, size: 0x8, addend: 0x0, symName: __ZNSt3__113__rewrap_iterB8ue170006IPKiS2_NS_18__unwrap_iter_implIS2_Lb1EEEEET_S5_T0_, symObjAddr: 0x1594, symBinAddr: 0x100002AAC, symSize: 0x3C }
  - { offsetInCU: 0x6EB6, offset: 0x6EB6, size: 0x8, addend: 0x0, symName: __ZNSt3__116__pad_and_outputB8ue170006IcNS_11char_traitsIcEEEENS_19ostreambuf_iteratorIT_T0_EES6_PKS4_S8_S8_RNS_8ios_baseES4_, symObjAddr: 0x1C54, symBinAddr: 0x10000316C, symSize: 0x240 }
  - { offsetInCU: 0x6F85, offset: 0x6F85, size: 0x8, addend: 0x0, symName: __ZNSt3__112__to_addressB8ue170006IKcEEPT_S3_, symObjAddr: 0x21BC, symBinAddr: 0x1000036D4, symSize: 0x14 }
  - { offsetInCU: 0x6FED, offset: 0x6FED, size: 0x8, addend: 0x0, symName: __ZNSt3__19use_facetB8ue170006INS_5ctypeIcEEEERKT_RKNS_6localeE, symObjAddr: 0x243C, symBinAddr: 0x100003954, symSize: 0x2C }
  - { offsetInCU: 0x74BA, offset: 0x74BA, size: 0x8, addend: 0x0, symName: __ZNSt3__118__constexpr_strlenB8ue170006EPKc, symObjAddr: 0x24D4, symBinAddr: 0x1000039EC, symSize: 0x24 }
  - { offsetInCU: 0x9F8A, offset: 0x9F8A, size: 0x8, addend: 0x0, symName: _main, symObjAddr: 0x0, symBinAddr: 0x100001518, symSize: 0x178 }
  - { offsetInCU: 0xA001, offset: 0xA001, size: 0x8, addend: 0x0, symName: __ZNSt3__16vectorIi11MyAllocatorIiEEC1B8ue170006ESt16initializer_listIiE, symObjAddr: 0x178, symBinAddr: 0x100001690, symSize: 0x3C }
  - { offsetInCU: 0xA03C, offset: 0xA03C, size: 0x8, addend: 0x0, symName: __ZNSt3__16vectorIi11MyAllocatorIiEE5beginB8ue170006Ev, symObjAddr: 0x1FC, symBinAddr: 0x100001714, symSize: 0x30 }
  - { offsetInCU: 0xA064, offset: 0xA064, size: 0x8, addend: 0x0, symName: __ZNSt3__16vectorIi11MyAllocatorIiEE3endB8ue170006Ev, symObjAddr: 0x22C, symBinAddr: 0x100001744, symSize: 0x30 }
  - { offsetInCU: 0xA08C, offset: 0xA08C, size: 0x8, addend: 0x0, symName: __ZNKSt3__111__wrap_iterIPiEdeB8ue170006Ev, symObjAddr: 0x290, symBinAddr: 0x1000017A8, symSize: 0x18 }
  - { offsetInCU: 0xA0B2, offset: 0xA0B2, size: 0x8, addend: 0x0, symName: __ZNSt3__111__wrap_iterIPiEppB8ue170006Ev, symObjAddr: 0x2A8, symBinAddr: 0x1000017C0, symSize: 0x20 }
  - { offsetInCU: 0xA0D8, offset: 0xA0D8, size: 0x8, addend: 0x0, symName: __ZNSt3__113basic_ostreamIcNS_11char_traitsIcEEElsB8ue170006EPFRS3_S4_E, symObjAddr: 0x2C8, symBinAddr: 0x1000017E0, symSize: 0x2C }
  - { offsetInCU: 0xA10C, offset: 0xA10C, size: 0x8, addend: 0x0, symName: __ZNSt3__16vectorIi11MyAllocatorIiEED1B8ue170006Ev, symObjAddr: 0x34C, symBinAddr: 0x100001864, symSize: 0x2C }
  - { offsetInCU: 0xA136, offset: 0xA136, size: 0x8, addend: 0x0, symName: __ZNKSt3__111__wrap_iterIPiE4baseB8ue170006Ev, symObjAddr: 0x3C0, symBinAddr: 0x1000018D8, symSize: 0x18 }
  - { offsetInCU: 0xA15C, offset: 0xA15C, size: 0x8, addend: 0x0, symName: __ZNSt3__16vectorIi11MyAllocatorIiEEC2B8ue170006ESt16initializer_listIiE, symObjAddr: 0x3D8, symBinAddr: 0x1000018F0, symSize: 0x120 }
  - { offsetInCU: 0xA1B6, offset: 0xA1B6, size: 0x8, addend: 0x0, symName: __ZNSt3__117__compressed_pairIPi11MyAllocatorIiEEC1B8ue170006IDnNS_18__default_init_tagEEEOT_OT0_, symObjAddr: 0x4F8, symBinAddr: 0x100001A10, symSize: 0x3C }
  - { offsetInCU: 0xA20E, offset: 0xA20E, size: 0x8, addend: 0x0, symName: __ZNSt3__16vectorIi11MyAllocatorIiEE16__destroy_vectorC1B8ue170006ERS3_, symObjAddr: 0x574, symBinAddr: 0x100001A8C, symSize: 0x34 }
  - { offsetInCU: 0xA247, offset: 0xA247, size: 0x8, addend: 0x0, symName: __ZNKSt16initializer_listIiE4sizeB8ue170006Ev, symObjAddr: 0x5A8, symBinAddr: 0x100001AC0, symSize: 0x18 }
  - { offsetInCU: 0xA26D, offset: 0xA26D, size: 0x8, addend: 0x0, symName: __ZNSt3__16vectorIi11MyAllocatorIiEE11__vallocateB8ue170006Em, symObjAddr: 0x5C0, symBinAddr: 0x100001AD8, symSize: 0xAC }
  - { offsetInCU: 0xA2B1, offset: 0xA2B1, size: 0x8, addend: 0x0, symName: __ZNSt3__16vectorIi11MyAllocatorIiEE18__construct_at_endIPKiS6_EEvT_T0_m, symObjAddr: 0x66C, symBinAddr: 0x100001B84, symSize: 0x8C }
  - { offsetInCU: 0xA327, offset: 0xA327, size: 0x8, addend: 0x0, symName: __ZNKSt16initializer_listIiE5beginB8ue170006Ev, symObjAddr: 0x6F8, symBinAddr: 0x100001C10, symSize: 0x18 }
  - { offsetInCU: 0xA34D, offset: 0xA34D, size: 0x8, addend: 0x0, symName: __ZNKSt16initializer_listIiE3endB8ue170006Ev, symObjAddr: 0x710, symBinAddr: 0x100001C28, symSize: 0x20 }
  - { offsetInCU: 0xA373, offset: 0xA373, size: 0x8, addend: 0x0, symName: __ZNSt3__128__exception_guard_exceptionsINS_6vectorIi11MyAllocatorIiEE16__destroy_vectorEE10__completeB8ue170006Ev, symObjAddr: 0x730, symBinAddr: 0x100001C48, symSize: 0x1C }
  - { offsetInCU: 0xA399, offset: 0xA399, size: 0x8, addend: 0x0, symName: __ZNSt3__128__exception_guard_exceptionsINS_6vectorIi11MyAllocatorIiEE16__destroy_vectorEED1B8ue170006Ev, symObjAddr: 0x74C, symBinAddr: 0x100001C64, symSize: 0x2C }
  - { offsetInCU: 0xA3C3, offset: 0xA3C3, size: 0x8, addend: 0x0, symName: __ZNSt3__117__compressed_pairIPi11MyAllocatorIiEEC2B8ue170006IDnNS_18__default_init_tagEEEOT_OT0_, symObjAddr: 0x778, symBinAddr: 0x100001C90, symSize: 0x40 }
  - { offsetInCU: 0xA41B, offset: 0xA41B, size: 0x8, addend: 0x0, symName: __ZNSt3__122__compressed_pair_elemIPiLi0ELb0EEC2B8ue170006IDnvEEOT_, symObjAddr: 0x7B8, symBinAddr: 0x100001CD0, symSize: 0x1C }
  - { offsetInCU: 0xA45D, offset: 0xA45D, size: 0x8, addend: 0x0, symName: __ZNSt3__122__compressed_pair_elemI11MyAllocatorIiELi1ELb1EEC2B8ue170006ENS_18__default_init_tagE, symObjAddr: 0x7D4, symBinAddr: 0x100001CEC, symSize: 0x14 }
  - { offsetInCU: 0xA492, offset: 0xA492, size: 0x8, addend: 0x0, symName: __ZNSt3__128__exception_guard_exceptionsINS_6vectorIi11MyAllocatorIiEE16__destroy_vectorEEC1B8ue170006ES5_, symObjAddr: 0x7E8, symBinAddr: 0x100001D00, symSize: 0x34 }
  - { offsetInCU: 0xA4CA, offset: 0xA4CA, size: 0x8, addend: 0x0, symName: __ZNSt3__128__exception_guard_exceptionsINS_6vectorIi11MyAllocatorIiEE16__destroy_vectorEEC2B8ue170006ES5_, symObjAddr: 0x81C, symBinAddr: 0x100001D34, symSize: 0x24 }
  - { offsetInCU: 0xA502, offset: 0xA502, size: 0x8, addend: 0x0, symName: __ZNSt3__16vectorIi11MyAllocatorIiEE16__destroy_vectorC2B8ue170006ERS3_, symObjAddr: 0x840, symBinAddr: 0x100001D58, symSize: 0x20 }
  - { offsetInCU: 0xA53B, offset: 0xA53B, size: 0x8, addend: 0x0, symName: __ZNKSt3__16vectorIi11MyAllocatorIiEE8max_sizeEv, symObjAddr: 0x860, symBinAddr: 0x100001D78, symSize: 0x60 }
  - { offsetInCU: 0xA563, offset: 0xA563, size: 0x8, addend: 0x0, symName: __ZNKSt3__16vectorIi11MyAllocatorIiEE20__throw_length_errorB8ue170006Ev, symObjAddr: 0x8C0, symBinAddr: 0x100001DD8, symSize: 0x1C }
  - { offsetInCU: 0xA589, offset: 0xA589, size: 0x8, addend: 0x0, symName: __ZNSt3__16vectorIi11MyAllocatorIiEE7__allocB8ue170006Ev, symObjAddr: 0x91C, symBinAddr: 0x100001E34, symSize: 0x28 }
  - { offsetInCU: 0xA5AF, offset: 0xA5AF, size: 0x8, addend: 0x0, symName: __ZNSt3__16vectorIi11MyAllocatorIiEE9__end_capB8ue170006Ev, symObjAddr: 0x944, symBinAddr: 0x100001E5C, symSize: 0x28 }
  - { offsetInCU: 0xA5D5, offset: 0xA5D5, size: 0x8, addend: 0x0, symName: __ZNKSt3__16vectorIi11MyAllocatorIiEE14__annotate_newB8ue170006Em, symObjAddr: 0x96C, symBinAddr: 0x100001E84, symSize: 0xAC }
  - { offsetInCU: 0xA614, offset: 0xA614, size: 0x8, addend: 0x0, symName: __ZNSt3__116allocator_traitsI11MyAllocatorIiEE8max_sizeB8ue170006IS2_vvEEmRKS2_, symObjAddr: 0xA44, symBinAddr: 0x100001F5C, symSize: 0x28 }
  - { offsetInCU: 0xA63F, offset: 0xA63F, size: 0x8, addend: 0x0, symName: __ZNKSt3__16vectorIi11MyAllocatorIiEE7__allocB8ue170006Ev, symObjAddr: 0xA6C, symBinAddr: 0x100001F84, symSize: 0x28 }
  - { offsetInCU: 0xA665, offset: 0xA665, size: 0x8, addend: 0x0, symName: __ZNSt3__114numeric_limitsIlE3maxB8ue170006Ev, symObjAddr: 0xA94, symBinAddr: 0x100001FAC, symSize: 0x14 }
  - { offsetInCU: 0xA68D, offset: 0xA68D, size: 0x8, addend: 0x0, symName: __ZNKSt3__16__lessIvvEclB8ue170006ImmEEbRKT_RKT0_, symObjAddr: 0xB08, symBinAddr: 0x100002020, symSize: 0x34 }
  - { offsetInCU: 0xA6E1, offset: 0xA6E1, size: 0x8, addend: 0x0, symName: __ZNSt3__114numeric_limitsImE3maxB8ue170006Ev, symObjAddr: 0xB3C, symBinAddr: 0x100002054, symSize: 0x14 }
  - { offsetInCU: 0xA6F5, offset: 0xA6F5, size: 0x8, addend: 0x0, symName: __ZNSt3__123__libcpp_numeric_limitsImLb1EE3maxB8ue170006Ev, symObjAddr: 0xB50, symBinAddr: 0x100002068, symSize: 0x8 }
  - { offsetInCU: 0xA709, offset: 0xA709, size: 0x8, addend: 0x0, symName: __ZNKSt3__117__compressed_pairIPi11MyAllocatorIiEE6secondB8ue170006Ev, symObjAddr: 0xB58, symBinAddr: 0x100002070, symSize: 0x24 }
  - { offsetInCU: 0xA72F, offset: 0xA72F, size: 0x8, addend: 0x0, symName: __ZNKSt3__122__compressed_pair_elemI11MyAllocatorIiELi1ELb1EE5__getB8ue170006Ev, symObjAddr: 0xB7C, symBinAddr: 0x100002094, symSize: 0x14 }
  - { offsetInCU: 0xA755, offset: 0xA755, size: 0x8, addend: 0x0, symName: __ZNSt3__123__libcpp_numeric_limitsIlLb1EE3maxB8ue170006Ev, symObjAddr: 0xB90, symBinAddr: 0x1000020A8, symSize: 0x8 }
  - { offsetInCU: 0xA769, offset: 0xA769, size: 0x8, addend: 0x0, symName: __ZNSt12length_errorC1B8ue170006EPKc, symObjAddr: 0xBFC, symBinAddr: 0x100002114, symSize: 0x34 }
  - { offsetInCU: 0xA7A1, offset: 0xA7A1, size: 0x8, addend: 0x0, symName: __ZNSt12length_errorC2B8ue170006EPKc, symObjAddr: 0xC30, symBinAddr: 0x100002148, symSize: 0x4C }
  - { offsetInCU: 0xA7D9, offset: 0xA7D9, size: 0x8, addend: 0x0, symName: __ZN11MyAllocatorIiE8allocateEm, symObjAddr: 0xC7C, symBinAddr: 0x100002194, symSize: 0x60 }
  - { offsetInCU: 0xA80D, offset: 0xA80D, size: 0x8, addend: 0x0, symName: __ZNSt3__117__compressed_pairIPi11MyAllocatorIiEE6secondB8ue170006Ev, symObjAddr: 0xCDC, symBinAddr: 0x1000021F4, symSize: 0x24 }
  - { offsetInCU: 0xA833, offset: 0xA833, size: 0x8, addend: 0x0, symName: __ZNSt3__122__compressed_pair_elemI11MyAllocatorIiELi1ELb1EE5__getB8ue170006Ev, symObjAddr: 0xD00, symBinAddr: 0x100002218, symSize: 0x14 }
  - { offsetInCU: 0xA859, offset: 0xA859, size: 0x8, addend: 0x0, symName: __ZNSt3__117__compressed_pairIPi11MyAllocatorIiEE5firstB8ue170006Ev, symObjAddr: 0xD14, symBinAddr: 0x10000222C, symSize: 0x24 }
  - { offsetInCU: 0xA87F, offset: 0xA87F, size: 0x8, addend: 0x0, symName: __ZNSt3__122__compressed_pair_elemIPiLi0ELb0EE5__getB8ue170006Ev, symObjAddr: 0xD38, symBinAddr: 0x100002250, symSize: 0x14 }
  - { offsetInCU: 0xA8A5, offset: 0xA8A5, size: 0x8, addend: 0x0, symName: __ZNKSt3__16vectorIi11MyAllocatorIiEE31__annotate_contiguous_containerB8ue170006EPKvS5_S5_S5_, symObjAddr: 0xD4C, symBinAddr: 0x100002264, symSize: 0x20 }
  - { offsetInCU: 0xA8F7, offset: 0xA8F7, size: 0x8, addend: 0x0, symName: __ZNKSt3__16vectorIi11MyAllocatorIiEE4dataB8ue170006Ev, symObjAddr: 0xD6C, symBinAddr: 0x100002284, symSize: 0x28 }
  - { offsetInCU: 0xA91D, offset: 0xA91D, size: 0x8, addend: 0x0, symName: __ZNKSt3__16vectorIi11MyAllocatorIiEE8capacityB8ue170006Ev, symObjAddr: 0xD94, symBinAddr: 0x1000022AC, symSize: 0x40 }
  - { offsetInCU: 0xA943, offset: 0xA943, size: 0x8, addend: 0x0, symName: __ZNKSt3__16vectorIi11MyAllocatorIiEE9__end_capB8ue170006Ev, symObjAddr: 0xDE8, symBinAddr: 0x100002300, symSize: 0x28 }
  - { offsetInCU: 0xA969, offset: 0xA969, size: 0x8, addend: 0x0, symName: __ZNKSt3__117__compressed_pairIPi11MyAllocatorIiEE5firstB8ue170006Ev, symObjAddr: 0xE10, symBinAddr: 0x100002328, symSize: 0x24 }
  - { offsetInCU: 0xA98F, offset: 0xA98F, size: 0x8, addend: 0x0, symName: __ZNKSt3__122__compressed_pair_elemIPiLi0ELb0EE5__getB8ue170006Ev, symObjAddr: 0xE34, symBinAddr: 0x10000234C, symSize: 0x14 }
  - { offsetInCU: 0xA9CE, offset: 0xA9CE, size: 0x8, addend: 0x0, symName: __ZNSt3__16vectorIi11MyAllocatorIiEE21_ConstructTransactionC1B8ue170006ERS3_m, symObjAddr: 0xE48, symBinAddr: 0x100002360, symSize: 0x3C }
  - { offsetInCU: 0xAA16, offset: 0xAA16, size: 0x8, addend: 0x0, symName: __ZNSt3__16vectorIi11MyAllocatorIiEE21_ConstructTransactionD1B8ue170006Ev, symObjAddr: 0xF04, symBinAddr: 0x10000241C, symSize: 0x2C }
  - { offsetInCU: 0xAA40, offset: 0xAA40, size: 0x8, addend: 0x0, symName: __ZNSt3__16vectorIi11MyAllocatorIiEE21_ConstructTransactionC2B8ue170006ERS3_m, symObjAddr: 0xF30, symBinAddr: 0x100002448, symSize: 0x44 }
  - { offsetInCU: 0xAAA6, offset: 0xAAA6, size: 0x8, addend: 0x0, symName: __ZNSt3__14pairIPKiS2_EC1B8ue170006IS2_S2_LPv0EEEOT_OT0_, symObjAddr: 0x10C8, symBinAddr: 0x1000025E0, symSize: 0x3C }
  - { offsetInCU: 0xAB04, offset: 0xAB04, size: 0x8, addend: 0x0, symName: __ZNSt3__14pairIPKiS2_EC2B8ue170006IS2_S2_LPv0EEEOT_OT0_, symObjAddr: 0x1104, symBinAddr: 0x10000261C, symSize: 0x34 }
  - { offsetInCU: 0xAB62, offset: 0xAB62, size: 0x8, addend: 0x0, symName: __ZNSt3__118__unwrap_iter_implIPKiLb1EE8__unwrapB8ue170006ES2_, symObjAddr: 0x1138, symBinAddr: 0x100002650, symSize: 0x24 }
  - { offsetInCU: 0xABA8, offset: 0xABA8, size: 0x8, addend: 0x0, symName: __ZNKSt3__114__copy_trivialclB8ue170006IKiiLi0EEENS_4pairIPT_PT0_EES5_S5_S7_, symObjAddr: 0x12EC, symBinAddr: 0x100002804, symSize: 0x48 }
  - { offsetInCU: 0xAC1A, offset: 0xAC1A, size: 0x8, addend: 0x0, symName: __ZNSt3__14pairIPKiPiEC1B8ue170006IRS2_S3_LPv0EEEOT_OT0_, symObjAddr: 0x14B4, symBinAddr: 0x1000029CC, symSize: 0x3C }
  - { offsetInCU: 0xAC78, offset: 0xAC78, size: 0x8, addend: 0x0, symName: __ZNSt3__14pairIPKiPiEC2B8ue170006IRS2_S3_LPv0EEEOT_OT0_, symObjAddr: 0x14F0, symBinAddr: 0x100002A08, symSize: 0x34 }
  - { offsetInCU: 0xACD6, offset: 0xACD6, size: 0x8, addend: 0x0, symName: __ZNSt3__14pairIPKiPiEC1B8ue170006IS2_S3_LPv0EEEOT_OT0_, symObjAddr: 0x1524, symBinAddr: 0x100002A3C, symSize: 0x3C }
  - { offsetInCU: 0xAD34, offset: 0xAD34, size: 0x8, addend: 0x0, symName: __ZNSt3__14pairIPKiPiEC2B8ue170006IS2_S3_LPv0EEEOT_OT0_, symObjAddr: 0x1560, symBinAddr: 0x100002A78, symSize: 0x34 }
  - { offsetInCU: 0xAD92, offset: 0xAD92, size: 0x8, addend: 0x0, symName: __ZNSt3__118__unwrap_iter_implIPKiLb1EE8__rewrapB8ue170006ES2_S2_, symObjAddr: 0x15D0, symBinAddr: 0x100002AE8, symSize: 0x50 }
  - { offsetInCU: 0xADC3, offset: 0xADC3, size: 0x8, addend: 0x0, symName: __ZNSt3__118__unwrap_iter_implIPiLb1EE8__unwrapB8ue170006ES1_, symObjAddr: 0x1620, symBinAddr: 0x100002B38, symSize: 0x24 }
  - { offsetInCU: 0xADE6, offset: 0xADE6, size: 0x8, addend: 0x0, symName: __ZNSt3__118__unwrap_iter_implIPiLb1EE8__rewrapB8ue170006ES1_S1_, symObjAddr: 0x1644, symBinAddr: 0x100002B5C, symSize: 0x50 }
  - { offsetInCU: 0xAE17, offset: 0xAE17, size: 0x8, addend: 0x0, symName: __ZNSt3__16vectorIi11MyAllocatorIiEE21_ConstructTransactionD2B8ue170006Ev, symObjAddr: 0x1694, symBinAddr: 0x100002BAC, symSize: 0x20 }
  - { offsetInCU: 0xAE41, offset: 0xAE41, size: 0x8, addend: 0x0, symName: __ZNSt3__128__exception_guard_exceptionsINS_6vectorIi11MyAllocatorIiEE16__destroy_vectorEED2B8ue170006Ev, symObjAddr: 0x16B4, symBinAddr: 0x100002BCC, symSize: 0x50 }
  - { offsetInCU: 0xAE6B, offset: 0xAE6B, size: 0x8, addend: 0x0, symName: __ZNSt3__16vectorIi11MyAllocatorIiEE16__destroy_vectorclB8ue170006Ev, symObjAddr: 0x1704, symBinAddr: 0x100002C1C, symSize: 0x90 }
  - { offsetInCU: 0xAE91, offset: 0xAE91, size: 0x8, addend: 0x0, symName: __ZNSt3__16vectorIi11MyAllocatorIiEE7__clearB8ue170006Ev, symObjAddr: 0x1794, symBinAddr: 0x100002CAC, symSize: 0x28 }
  - { offsetInCU: 0xAEB7, offset: 0xAEB7, size: 0x8, addend: 0x0, symName: __ZNKSt3__16vectorIi11MyAllocatorIiEE17__annotate_deleteB8ue170006Ev, symObjAddr: 0x17BC, symBinAddr: 0x100002CD4, symSize: 0xB8 }
  - { offsetInCU: 0xAEDD, offset: 0xAEDD, size: 0x8, addend: 0x0, symName: __ZNSt3__116allocator_traitsI11MyAllocatorIiEE10deallocateB8ue170006ERS2_Pim, symObjAddr: 0x1874, symBinAddr: 0x100002D8C, symSize: 0x3C }
  - { offsetInCU: 0xAF1F, offset: 0xAF1F, size: 0x8, addend: 0x0, symName: __ZNSt3__16vectorIi11MyAllocatorIiEE22__base_destruct_at_endB8ue170006EPi, symObjAddr: 0x18B0, symBinAddr: 0x100002DC8, symSize: 0x8C }
  - { offsetInCU: 0xAF63, offset: 0xAF63, size: 0x8, addend: 0x0, symName: __ZNSt3__116allocator_traitsI11MyAllocatorIiEE7destroyB8ue170006IivvEEvRS2_PT_, symObjAddr: 0x193C, symBinAddr: 0x100002E54, symSize: 0x14 }
  - { offsetInCU: 0xAF9D, offset: 0xAF9D, size: 0x8, addend: 0x0, symName: __ZNKSt3__16vectorIi11MyAllocatorIiEE4sizeB8ue170006Ev, symObjAddr: 0x1950, symBinAddr: 0x100002E68, symSize: 0x28 }
  - { offsetInCU: 0xAFC3, offset: 0xAFC3, size: 0x8, addend: 0x0, symName: __ZN11MyAllocatorIiE10deallocateEPim, symObjAddr: 0x1978, symBinAddr: 0x100002E90, symSize: 0x60 }
  - { offsetInCU: 0xB005, offset: 0xB005, size: 0x8, addend: 0x0, symName: __ZNSt3__16vectorIi11MyAllocatorIiEED2B8ue170006Ev, symObjAddr: 0x19D8, symBinAddr: 0x100002EF0, symSize: 0x40 }
  - { offsetInCU: 0xB02F, offset: 0xB02F, size: 0x8, addend: 0x0, symName: __ZNSt3__111char_traitsIcE6lengthB8ue170006EPKc, symObjAddr: 0x1C04, symBinAddr: 0x10000311C, symSize: 0x34 }
  - { offsetInCU: 0xB070, offset: 0xB070, size: 0x8, addend: 0x0, symName: __ZNKSt3__113basic_ostreamIcNS_11char_traitsIcEEE6sentrycvbB8ue170006Ev, symObjAddr: 0x1C38, symBinAddr: 0x100003150, symSize: 0x1C }
  - { offsetInCU: 0xB096, offset: 0xB096, size: 0x8, addend: 0x0, symName: __ZNSt3__119ostreambuf_iteratorIcNS_11char_traitsIcEEEC1B8ue170006ERNS_13basic_ostreamIcS2_EE, symObjAddr: 0x1E94, symBinAddr: 0x1000033AC, symSize: 0x34 }
  - { offsetInCU: 0xB0CE, offset: 0xB0CE, size: 0x8, addend: 0x0, symName: __ZNKSt3__18ios_base5flagsB8ue170006Ev, symObjAddr: 0x1EC8, symBinAddr: 0x1000033E0, symSize: 0x18 }
  - { offsetInCU: 0xB0F6, offset: 0xB0F6, size: 0x8, addend: 0x0, symName: __ZNKSt3__19basic_iosIcNS_11char_traitsIcEEE4fillB8ue170006Ev, symObjAddr: 0x1EE0, symBinAddr: 0x1000033F8, symSize: 0x64 }
  - { offsetInCU: 0xB11E, offset: 0xB11E, size: 0x8, addend: 0x0, symName: __ZNKSt3__119ostreambuf_iteratorIcNS_11char_traitsIcEEE6failedB8ue170006Ev, symObjAddr: 0x1F44, symBinAddr: 0x10000345C, symSize: 0x24 }
  - { offsetInCU: 0xB144, offset: 0xB144, size: 0x8, addend: 0x0, symName: __ZNSt3__19basic_iosIcNS_11char_traitsIcEEE8setstateB8ue170006Ej, symObjAddr: 0x1F68, symBinAddr: 0x100003480, symSize: 0x2C }
  - { offsetInCU: 0xB179, offset: 0xB179, size: 0x8, addend: 0x0, symName: __ZNKSt3__18ios_base5widthB8ue170006Ev, symObjAddr: 0x1F94, symBinAddr: 0x1000034AC, symSize: 0x18 }
  - { offsetInCU: 0xB1A1, offset: 0xB1A1, size: 0x8, addend: 0x0, symName: __ZNSt3__115basic_streambufIcNS_11char_traitsIcEEE5sputnB8ue170006EPKcl, symObjAddr: 0x1FAC, symBinAddr: 0x1000034C4, symSize: 0x3C }
  - { offsetInCU: 0xB1E3, offset: 0xB1E3, size: 0x8, addend: 0x0, symName: __ZNSt3__112basic_stringIcNS_11char_traitsIcEENS_9allocatorIcEEEC1B8ue170006Emc, symObjAddr: 0x1FE8, symBinAddr: 0x100003500, symSize: 0x3C }
  - { offsetInCU: 0xB22B, offset: 0xB22B, size: 0x8, addend: 0x0, symName: __ZNKSt3__112basic_stringIcNS_11char_traitsIcEENS_9allocatorIcEEE4dataB8ue170006Ev, symObjAddr: 0x2024, symBinAddr: 0x10000353C, symSize: 0x28 }
  - { offsetInCU: 0xB251, offset: 0xB251, size: 0x8, addend: 0x0, symName: __ZNSt3__18ios_base5widthB8ue170006El, symObjAddr: 0x204C, symBinAddr: 0x100003564, symSize: 0x2C }
  - { offsetInCU: 0xB297, offset: 0xB297, size: 0x8, addend: 0x0, symName: __ZNSt3__112basic_stringIcNS_11char_traitsIcEENS_9allocatorIcEEEC2B8ue170006Emc, symObjAddr: 0x2078, symBinAddr: 0x100003590, symSize: 0x4C }
  - { offsetInCU: 0xB2DF, offset: 0xB2DF, size: 0x8, addend: 0x0, symName: __ZNSt3__117__compressed_pairINS_12basic_stringIcNS_11char_traitsIcEENS_9allocatorIcEEE5__repES5_EC1B8ue170006INS_18__default_init_tagESA_EEOT_OT0_, symObjAddr: 0x20C4, symBinAddr: 0x1000035DC, symSize: 0x3C }
  - { offsetInCU: 0xB337, offset: 0xB337, size: 0x8, addend: 0x0, symName: __ZNSt3__117__compressed_pairINS_12basic_stringIcNS_11char_traitsIcEENS_9allocatorIcEEE5__repES5_EC2B8ue170006INS_18__default_init_tagESA_EEOT_OT0_, symObjAddr: 0x2100, symBinAddr: 0x100003618, symSize: 0x3C }
  - { offsetInCU: 0xB38F, offset: 0xB38F, size: 0x8, addend: 0x0, symName: __ZNSt3__122__compressed_pair_elemINS_12basic_stringIcNS_11char_traitsIcEENS_9allocatorIcEEE5__repELi0ELb0EEC2B8ue170006ENS_18__default_init_tagE, symObjAddr: 0x213C, symBinAddr: 0x100003654, symSize: 0x14 }
  - { offsetInCU: 0xB3C4, offset: 0xB3C4, size: 0x8, addend: 0x0, symName: __ZNSt3__122__compressed_pair_elemINS_9allocatorIcEELi1ELb1EEC2B8ue170006ENS_18__default_init_tagE, symObjAddr: 0x2150, symBinAddr: 0x100003668, symSize: 0x2C }
  - { offsetInCU: 0xB3F9, offset: 0xB3F9, size: 0x8, addend: 0x0, symName: __ZNSt3__19allocatorIcEC2B8ue170006Ev, symObjAddr: 0x217C, symBinAddr: 0x100003694, symSize: 0x2C }
  - { offsetInCU: 0xB423, offset: 0xB423, size: 0x8, addend: 0x0, symName: __ZNSt3__116__non_trivial_ifILb1ENS_9allocatorIcEEEC2B8ue170006Ev, symObjAddr: 0x21A8, symBinAddr: 0x1000036C0, symSize: 0x14 }
  - { offsetInCU: 0xB44D, offset: 0xB44D, size: 0x8, addend: 0x0, symName: __ZNKSt3__112basic_stringIcNS_11char_traitsIcEENS_9allocatorIcEEE13__get_pointerB8ue170006Ev, symObjAddr: 0x21D0, symBinAddr: 0x1000036E8, symSize: 0x54 }
  - { offsetInCU: 0xB473, offset: 0xB473, size: 0x8, addend: 0x0, symName: __ZNKSt3__112basic_stringIcNS_11char_traitsIcEENS_9allocatorIcEEE9__is_longB8ue170006Ev, symObjAddr: 0x2224, symBinAddr: 0x10000373C, symSize: 0x38 }
  - { offsetInCU: 0xB499, offset: 0xB499, size: 0x8, addend: 0x0, symName: __ZNKSt3__112basic_stringIcNS_11char_traitsIcEENS_9allocatorIcEEE18__get_long_pointerB8ue170006Ev, symObjAddr: 0x225C, symBinAddr: 0x100003774, symSize: 0x28 }
  - { offsetInCU: 0xB4BF, offset: 0xB4BF, size: 0x8, addend: 0x0, symName: __ZNKSt3__112basic_stringIcNS_11char_traitsIcEENS_9allocatorIcEEE19__get_short_pointerB8ue170006Ev, symObjAddr: 0x2284, symBinAddr: 0x10000379C, symSize: 0x28 }
  - { offsetInCU: 0xB4E5, offset: 0xB4E5, size: 0x8, addend: 0x0, symName: __ZNKSt3__117__compressed_pairINS_12basic_stringIcNS_11char_traitsIcEENS_9allocatorIcEEE5__repES5_E5firstB8ue170006Ev, symObjAddr: 0x22AC, symBinAddr: 0x1000037C4, symSize: 0x24 }
  - { offsetInCU: 0xB50B, offset: 0xB50B, size: 0x8, addend: 0x0, symName: __ZNKSt3__122__compressed_pair_elemINS_12basic_stringIcNS_11char_traitsIcEENS_9allocatorIcEEE5__repELi0ELb0EE5__getB8ue170006Ev, symObjAddr: 0x22D0, symBinAddr: 0x1000037E8, symSize: 0x14 }
  - { offsetInCU: 0xB531, offset: 0xB531, size: 0x8, addend: 0x0, symName: __ZNSt3__114pointer_traitsIPKcE10pointer_toB8ue170006ERS1_, symObjAddr: 0x22E4, symBinAddr: 0x1000037FC, symSize: 0x14 }
  - { offsetInCU: 0xB554, offset: 0xB554, size: 0x8, addend: 0x0, symName: __ZNSt3__119ostreambuf_iteratorIcNS_11char_traitsIcEEEC2B8ue170006ERNS_13basic_ostreamIcS2_EE, symObjAddr: 0x22F8, symBinAddr: 0x100003810, symSize: 0x54 }
  - { offsetInCU: 0xB58C, offset: 0xB58C, size: 0x8, addend: 0x0, symName: __ZNKSt3__19basic_iosIcNS_11char_traitsIcEEE5rdbufB8ue170006Ev, symObjAddr: 0x234C, symBinAddr: 0x100003864, symSize: 0x24 }
  - { offsetInCU: 0xB5B4, offset: 0xB5B4, size: 0x8, addend: 0x0, symName: __ZNKSt3__18ios_base5rdbufB8ue170006Ev, symObjAddr: 0x2370, symBinAddr: 0x100003888, symSize: 0x18 }
  - { offsetInCU: 0xB5DA, offset: 0xB5DA, size: 0x8, addend: 0x0, symName: __ZNSt3__111char_traitsIcE11eq_int_typeB8ue170006Eii, symObjAddr: 0x2388, symBinAddr: 0x1000038A0, symSize: 0x28 }
  - { offsetInCU: 0xB60D, offset: 0xB60D, size: 0x8, addend: 0x0, symName: __ZNSt3__111char_traitsIcE3eofB8ue170006Ev, symObjAddr: 0x23B0, symBinAddr: 0x1000038C8, symSize: 0x8 }
  - { offsetInCU: 0xB621, offset: 0xB621, size: 0x8, addend: 0x0, symName: __ZNKSt3__19basic_iosIcNS_11char_traitsIcEEE5widenB8ue170006Ec, symObjAddr: 0x23B8, symBinAddr: 0x1000038D0, symSize: 0x84 }
  - { offsetInCU: 0xB68A, offset: 0xB68A, size: 0x8, addend: 0x0, symName: __ZNKSt3__15ctypeIcE5widenB8ue170006Ec, symObjAddr: 0x2468, symBinAddr: 0x100003980, symSize: 0x38 }
  - { offsetInCU: 0xB6BF, offset: 0xB6BF, size: 0x8, addend: 0x0, symName: __ZNSt3__18ios_base8setstateB8ue170006Ej, symObjAddr: 0x24A0, symBinAddr: 0x1000039B8, symSize: 0x34 }
  - { offsetInCU: 0xB6F6, offset: 0xB6F6, size: 0x8, addend: 0x0, symName: __ZNSt3__16vectorIi11MyAllocatorIiEE11__make_iterB8ue170006EPi, symObjAddr: 0x24F8, symBinAddr: 0x100003A10, symSize: 0x30 }
  - { offsetInCU: 0xB72B, offset: 0xB72B, size: 0x8, addend: 0x0, symName: __ZNSt3__111__wrap_iterIPiEC1B8ue170006ES1_, symObjAddr: 0x2528, symBinAddr: 0x100003A40, symSize: 0x34 }
  - { offsetInCU: 0xB763, offset: 0xB763, size: 0x8, addend: 0x0, symName: __ZNSt3__111__wrap_iterIPiEC2B8ue170006ES1_, symObjAddr: 0x255C, symBinAddr: 0x100003A74, symSize: 0x20 }
...
